target datalayout = "e-m:e-p270:32:32-p271:32:32-p272:64:64-i64:64-i128:128-f80:128-n8:16:32:64-S128"
target triple = "x86_64-pc-linux-gnu"

@.str.12 = private unnamed_addr constant [7 x i8] c"NotSet\00", align 1
@.str.35 = private unnamed_addr constant [5 x i8] c"Add,\00", align 1
@.str.36 = private unnamed_addr constant [8 x i8] c"Remove,\00", align 1
@.str.37 = private unnamed_addr constant [13 x i8] c"DenyOnLimit,\00", align 1
@.str.38 = private unnamed_addr constant [23 x i8] c"EnforceUsageThreshold,\00", align 1
@.str.39 = private unnamed_addr constant [11 x i8] c"NoReserve,\00", align 1
@.str.40 = private unnamed_addr constant [19 x i8] c"PartitionMaxNodes,\00", align 1
@.str.41 = private unnamed_addr constant [19 x i8] c"PartitionMinNodes,\00", align 1
@.str.42 = private unnamed_addr constant [13 x i8] c"OverPartQOS,\00", align 1
@.str.43 = private unnamed_addr constant [20 x i8] c"PartitionTimeLimit,\00", align 1
@.str.44 = private unnamed_addr constant [21 x i8] c"RequiresReservation,\00", align 1
@.str.45 = private unnamed_addr constant [9 x i8] c"NoDecay,\00", align 1
@.str.46 = private unnamed_addr constant [10 x i8] c"Relative,\00", align 1
@.str.47 = private unnamed_addr constant [17 x i8] c"UsageFactorSafe,\00", align 1

; Function Attrs: nounwind uwtable
define dso_local ptr @slurmdb_qos_flags_str(i32 noundef %0) #0 {
  %2 = alloca ptr, align 8
  %3 = alloca i32, align 4
  %4 = alloca ptr, align 8
  %5 = alloca i32, align 4
  store i32 %0, ptr %3, align 4
  call void @llvm.lifetime.start.p0(i64 8, ptr %4) #10
  store ptr null, ptr %4, align 8
  %6 = load i32, ptr %3, align 4
  %7 = and i32 %6, 268435456
  %8 = icmp ne i32 %7, 0
  br i1 %8, label %9, label %11

9:                                                ; preds = %1
  %10 = call ptr @xstrdup(ptr noundef @.str.12)
  store ptr %10, ptr %2, align 8
  store i32 1, ptr %5, align 4
  br label %98

11:                                               ; preds = %1
  %12 = load i32, ptr %3, align 4
  %13 = and i32 %12, 536870912
  %14 = icmp ne i32 %13, 0
  br i1 %14, label %15, label %16

15:                                               ; preds = %11
  call void @_xstrcat(ptr noundef %4, ptr noundef @.str.35)
  br label %16

16:                                               ; preds = %15, %11
  %17 = load i32, ptr %3, align 4
  %18 = and i32 %17, 1073741824
  %19 = icmp ne i32 %18, 0
  br i1 %19, label %20, label %21

20:                                               ; preds = %16
  call void @_xstrcat(ptr noundef %4, ptr noundef @.str.36)
  br label %21

21:                                               ; preds = %20, %16
  %22 = load i32, ptr %3, align 4
  %23 = zext i32 %22 to i64
  %24 = and i64 %23, 64
  %25 = icmp ne i64 %24, 0
  br i1 %25, label %26, label %27

26:                                               ; preds = %21
  call void @_xstrcat(ptr noundef %4, ptr noundef @.str.37)
  br label %27

27:                                               ; preds = %26, %21
  %28 = load i32, ptr %3, align 4
  %29 = zext i32 %28 to i64
  %30 = and i64 %29, 8
  %31 = icmp ne i64 %30, 0
  br i1 %31, label %32, label %33

32:                                               ; preds = %27
  call void @_xstrcat(ptr noundef %4, ptr noundef @.str.38)
  br label %33

33:                                               ; preds = %32, %27
  %34 = load i32, ptr %3, align 4
  %35 = zext i32 %34 to i64
  %36 = and i64 %35, 16
  %37 = icmp ne i64 %36, 0
  br i1 %37, label %38, label %39

38:                                               ; preds = %33
  call void @_xstrcat(ptr noundef %4, ptr noundef @.str.39)
  br label %39

39:                                               ; preds = %38, %33
  %40 = load i32, ptr %3, align 4
  %41 = zext i32 %40 to i64
  %42 = and i64 %41, 2
  %43 = icmp ne i64 %42, 0
  br i1 %43, label %44, label %45

44:                                               ; preds = %39
  call void @_xstrcat(ptr noundef %4, ptr noundef @.str.40)
  br label %45

45:                                               ; preds = %44, %39
  %46 = load i32, ptr %3, align 4
  %47 = zext i32 %46 to i64
  %48 = and i64 %47, 1
  %49 = icmp ne i64 %48, 0
  br i1 %49, label %50, label %51

50:                                               ; preds = %45
  call void @_xstrcat(ptr noundef %4, ptr noundef @.str.41)
  br label %51

51:                                               ; preds = %50, %45
  %52 = load i32, ptr %3, align 4
  %53 = zext i32 %52 to i64
  %54 = and i64 %53, 128
  %55 = icmp ne i64 %54, 0
  br i1 %55, label %56, label %57

56:                                               ; preds = %51
  call void @_xstrcat(ptr noundef %4, ptr noundef @.str.42)
  br label %57

57:                                               ; preds = %56, %51
  %58 = load i32, ptr %3, align 4
  %59 = zext i32 %58 to i64
  %60 = and i64 %59, 4
  %61 = icmp ne i64 %60, 0
  br i1 %61, label %62, label %63

62:                                               ; preds = %57
  call void @_xstrcat(ptr noundef %4, ptr noundef @.str.43)
  br label %63

63:                                               ; preds = %62, %57
  %64 = load i32, ptr %3, align 4
  %65 = zext i32 %64 to i64
  %66 = and i64 %65, 32
  %67 = icmp ne i64 %66, 0
  br i1 %67, label %68, label %69

68:                                               ; preds = %63
  call void @_xstrcat(ptr noundef %4, ptr noundef @.str.44)
  br label %69

69:                                               ; preds = %68, %63
  %70 = load i32, ptr %3, align 4
  %71 = zext i32 %70 to i64
  %72 = and i64 %71, 256
  %73 = icmp ne i64 %72, 0
  br i1 %73, label %74, label %75

74:                                               ; preds = %69
  call void @_xstrcat(ptr noundef %4, ptr noundef @.str.45)
  br label %75

75:                                               ; preds = %74, %69
  %76 = load i32, ptr %3, align 4
  %77 = zext i32 %76 to i64
  %78 = and i64 %77, 1024
  %79 = icmp ne i64 %78, 0
  br i1 %79, label %80, label %81

80:                                               ; preds = %75
  call void @_xstrcat(ptr noundef %4, ptr noundef @.str.46)
  br label %81

81:                                               ; preds = %80, %75
  %82 = load i32, ptr %3, align 4
  %83 = zext i32 %82 to i64
  %84 = and i64 %83, 512
  %85 = icmp ne i64 %84, 0
  br i1 %85, label %86, label %87

86:                                               ; preds = %81
  call void @_xstrcat(ptr noundef %4, ptr noundef @.str.47)
  br label %87

87:                                               ; preds = %86, %81
  %88 = load ptr, ptr %4, align 8
  %89 = icmp ne ptr %88, null
  br i1 %89, label %90, label %96

90:                                               ; preds = %87
  %91 = load ptr, ptr %4, align 8
  %92 = load ptr, ptr %4, align 8
  %93 = call i64 @strlen(ptr noundef %92) #11
  %94 = sub i64 %93, 1
  %95 = getelementptr inbounds nuw i8, ptr %91, i64 %94
  store i8 0, ptr %95, align 1
  br label %96

96:                                               ; preds = %90, %87
  %97 = load ptr, ptr %4, align 8
  store ptr %97, ptr %2, align 8
  store i32 1, ptr %5, align 4
  br label %98

98:                                               ; preds = %96, %9
  call void @llvm.lifetime.end.p0(i64 8, ptr %4) #10
  %99 = load ptr, ptr %2, align 8
  ret ptr %99
}