; Function Attrs: nounwind uwtable
define dso_local ptr @slurmdb_qos_flags_str(i32 noundef %0) local_unnamed_addr #0 {
  %2 = alloca ptr, align 8
  call void @llvm.lifetime.start.p0(i64 8, ptr nonnull %2) #19
  store ptr null, ptr %2, align 8
  %3 = and i32 %0, 268435456
  %.not = icmp eq i32 %3, 0
  br i1 %.not, label %6, label %4

4:                                                ; preds = %1
  %5 = tail call ptr @xstrdup(ptr noundef nonnull @.str.12) #19
  br label %52

6:                                                ; preds = %1
  %7 = and i32 %0, 536870912
  %.not15 = icmp eq i32 %7, 0
  br i1 %.not15, label %9, label %8

8:                                                ; preds = %6
  call void @_xstrcat(ptr noundef nonnull %2, ptr noundef nonnull @.str.35) #19
  br label %9

9:                                                ; preds = %8, %6
  %10 = and i32 %0, 1073741824
  %.not16 = icmp eq i32 %10, 0
  br i1 %.not16, label %12, label %11

11:                                               ; preds = %9
  call void @_xstrcat(ptr noundef nonnull %2, ptr noundef nonnull @.str.36) #19
  br label %12

12:                                               ; preds = %11, %9
  %13 = zext i32 %0 to i64
  %14 = and i64 %13, 64
  %.not17 = icmp eq i64 %14, 0
  br i1 %.not17, label %16, label %15

15:                                               ; preds = %12
  call void @_xstrcat(ptr noundef nonnull %2, ptr noundef nonnull @.str.37) #19
  br label %16

16:                                               ; preds = %15, %12
  %17 = and i64 %13, 8
  %.not18 = icmp eq i64 %17, 0
  br i1 %.not18, label %19, label %18

18:                                               ; preds = %16
  call void @_xstrcat(ptr noundef nonnull %2, ptr noundef nonnull @.str.38) #19
  br label %19

19:                                               ; preds = %18, %16
  %20 = and i64 %13, 16
  %.not19 = icmp eq i64 %20, 0
  br i1 %.not19, label %22, label %21

21:                                               ; preds = %19
  call void @_xstrcat(ptr noundef nonnull %2, ptr noundef nonnull @.str.39) #19
  br label %22

22:                                               ; preds = %21, %19
  %23 = and i64 %13, 2
  %.not20 = icmp eq i64 %23, 0
  br i1 %.not20, label %25, label %24

24:                                               ; preds = %22
  call void @_xstrcat(ptr noundef nonnull %2, ptr noundef nonnull @.str.40) #19
  br label %25

25:                                               ; preds = %24, %22
  %26 = and i64 %13, 1
  %.not21 = icmp eq i64 %26, 0
  br i1 %.not21, label %28, label %27

27:                                               ; preds = %25
  call void @_xstrcat(ptr noundef nonnull %2, ptr noundef nonnull @.str.41) #19
  br label %28

28:                                               ; preds = %27, %25
  %29 = and i64 %13, 128
  %.not22 = icmp eq i64 %29, 0
  br i1 %.not22, label %31, label %30

30:                                               ; preds = %28
  call void @_xstrcat(ptr noundef nonnull %2, ptr noundef nonnull @.str.42) #19
  br label %31

31:                                               ; preds = %30, %28
  %32 = and i64 %13, 4
  %.not23 = icmp eq i64 %32, 0
  br i1 %.not23, label %34, label %33

33:                                               ; preds = %31
  call void @_xstrcat(ptr noundef nonnull %2, ptr noundef nonnull @.str.43) #19
  br label %34

34:                                               ; preds = %33, %31
  %35 = and i64 %13, 32
  %.not24 = icmp eq i64 %35, 0
  br i1 %.not24, label %37, label %36

36:                                               ; preds = %34
  call void @_xstrcat(ptr noundef nonnull %2, ptr noundef nonnull @.str.44) #19
  br label %37

37:                                               ; preds = %36, %34
  %38 = and i64 %13, 256
  %.not25 = icmp eq i64 %38, 0
  br i1 %.not25, label %40, label %39

39:                                               ; preds = %37
  call void @_xstrcat(ptr noundef nonnull %2, ptr noundef nonnull @.str.45) #19
  br label %40

40:                                               ; preds = %39, %37
  %41 = and i64 %13, 1024
  %.not26 = icmp eq i64 %41, 0
  br i1 %.not26, label %43, label %42

42:                                               ; preds = %40
  call void @_xstrcat(ptr noundef nonnull %2, ptr noundef nonnull @.str.46) #19
  br label %43

43:                                               ; preds = %42, %40
  %44 = and i64 %13, 512
  %.not27 = icmp eq i64 %44, 0
  br i1 %.not27, label %46, label %45

45:                                               ; preds = %43
  call void @_xstrcat(ptr noundef nonnull %2, ptr noundef nonnull @.str.47) #19
  br label %46

46:                                               ; preds = %45, %43
  %47 = load ptr, ptr %2, align 8
  %.not28 = icmp eq ptr %47, null
  br i1 %.not28, label %52, label %48

48:                                               ; preds = %46
  %49 = call i64 @strlen(ptr noundef nonnull dereferenceable(1) %47) #20
  %50 = getelementptr i8, ptr %47, i64 %49
  %51 = getelementptr i8, ptr %50, i64 -1
  store i8 0, ptr %51, align 1
  %.pre = load ptr, ptr %2, align 8
  br label %52

52:                                               ; preds = %46, %48, %4
  %.0 = phi ptr [ %5, %4 ], [ %.pre, %48 ], [ null, %46 ]
  call void @llvm.lifetime.end.p0(i64 8, ptr nonnull %2) #19
  ret ptr %.0
}